target datalayout = "e-m:e-p270:32:32-p271:32:32-p272:64:64-i64:64-i128:128-f80:128-n8:16:32:64-S128"
target triple = "x86_64-pc-linux-gnu"

%struct.SDL_AtomicInt = type { i32 }

@SDL_userevents = internal global %struct.SDL_AtomicInt zeroinitializer, align 4

; Function Attrs: nounwind uwtable
define hidden i32 @SDL_RegisterEvents_REAL(i32 noundef %0) #0 {
  %2 = alloca i32, align 4
  %3 = alloca i32, align 4
  %4 = alloca i32, align 4
  store i32 %0, ptr %2, align 4
  call void @llvm.lifetime.start.p0(i64 4, ptr %3) #5
  store i32 0, ptr %3, align 4
  %5 = load i32, ptr %2, align 4
  %6 = icmp sgt i32 %5, 0
  br i1 %6, label %7, label %19

7:                                                ; preds = %1
  call void @llvm.lifetime.start.p0(i64 4, ptr %4) #5
  %8 = load i32, ptr %2, align 4
  %9 = call i32 @SDL_AddAtomicInt_REAL(ptr noundef @SDL_userevents, i32 noundef %8)
  store i32 %9, ptr %4, align 4
  %10 = load i32, ptr %4, align 4
  %11 = icmp sge i32 %10, 0
  br i1 %11, label %12, label %18

12:                                               ; preds = %7
  %13 = load i32, ptr %4, align 4
  %14 = icmp sle i32 %13, 32767
  br i1 %14, label %15, label %18

15:                                               ; preds = %12
  %16 = load i32, ptr %4, align 4
  %17 = add nsw i32 32768, %16
  store i32 %17, ptr %3, align 4
  br label %18

18:                                               ; preds = %15, %12, %7
  call void @llvm.lifetime.end.p0(i64 4, ptr %4) #5
  br label %19

19:                                               ; preds = %18, %1
  %20 = load i32, ptr %3, align 4
  call void @llvm.lifetime.end.p0(i64 4, ptr %3) #5
  ret i32 %20
}