; Function Attrs: nounwind uwtable
define hidden range(i32 0, 65536) i32 @SDL_RegisterEvents_REAL(i32 noundef %0) local_unnamed_addr #0 {
  %2 = icmp sgt i32 %0, 0
  br i1 %2, label %3, label %6

3:                                                ; preds = %1
  %4 = tail call i32 @SDL_AddAtomicInt_REAL(ptr noundef nonnull @SDL_userevents, i32 noundef %0) #8
  %or.cond = icmp ult i32 %4, 32768
  %5 = or disjoint i32 %4, 32768
  %spec.select = select i1 %or.cond, i32 %5, i32 0
  br label %6

6:                                                ; preds = %3, %1
  %.0 = phi i32 [ %spec.select, %3 ], [ 0, %1 ]
  ret i32 %.0
}